; Function Attrs: null_pointer_is_valid sspstrong uwtable
define internal i32 @budb_dissect_GetLock_request(ptr noundef %0, i32 noundef %1, ptr noundef %2, ptr noundef %3, ptr noundef %4, ptr noundef %5) #0 {
  %7 = load i32, ptr @hf_budb_GetLock_instanceId, align 4
  %8 = tail call i32 @dissect_ndr_uint32(ptr noundef %0, i32 noundef %1, ptr noundef %2, ptr noundef %3, ptr noundef %4, ptr noundef %5, i32 noundef %7, ptr noundef null)
  %9 = tail call i32 @dissect_deferred_pointers(ptr noundef %2, ptr noundef %0, i32 noundef %8, ptr noundef %4, ptr noundef %5)
  %10 = load i32, ptr @hf_budb_GetLock_lockName, align 4
  %11 = tail call i32 @dissect_ndr_uint32(ptr noundef %0, i32 noundef %9, ptr noundef %2, ptr noundef %3, ptr noundef %4, ptr noundef %5, i32 noundef %10, ptr noundef null)
  %12 = tail call i32 @dissect_deferred_pointers(ptr noundef %2, ptr noundef %0, i32 noundef %11, ptr noundef %4, ptr noundef %5)
  %13 = load i32, ptr @hf_budb_GetLock_expiration, align 4
  %14 = tail call i32 @dissect_ndr_uint32(ptr noundef %0, i32 noundef %12, ptr noundef %2, ptr noundef %3, ptr noundef %4, ptr noundef %5, i32 noundef %13, ptr noundef null)
  %15 = tail call i32 @dissect_deferred_pointers(ptr noundef %2, ptr noundef %0, i32 noundef %14, ptr noundef %4, ptr noundef %5)
  ret i32 %15
}